; Function Attrs: mustprogress nounwind uwtable
define hidden void @_ZN7JfrBlob8set_nextERK14RefCountHandleI15RefCountPointerIS_23MultiThreadedRefCounterEE(ptr nocapture noundef nonnull align 8 dereferenceable(25) %0, ptr nocapture noundef nonnull readonly align 8 dereferenceable(8) %1) local_unnamed_addr #0 align 2 {
  %3 = load ptr, ptr %1, align 8
  %4 = getelementptr inbounds i8, ptr %0, i64 8
  %5 = load ptr, ptr %4, align 8
  %6 = icmp eq ptr %5, %3
  br i1 %6, label %_ZN14RefCountHandleI15RefCountPointerI7JfrBlob23MultiThreadedRefCounterEED2Ev.exit, label %.lr.ph.preheader

.lr.ph.preheader:                                 ; preds = %2
  %.not15 = icmp eq ptr %5, null
  br i1 %.not15, label %.lr.ph._crit_edge, label %tailrecurse

.lr.ph:                                           ; preds = %tailrecurse
  %.not = icmp eq ptr %10, null
  br i1 %.not, label %.lr.ph._crit_edge, label %tailrecurse

tailrecurse:                                      ; preds = %.lr.ph.preheader, %.lr.ph
  %7 = phi ptr [ %10, %.lr.ph ], [ %5, %.lr.ph.preheader ]
  %8 = load ptr, ptr %7, align 8
  %9 = getelementptr inbounds i8, ptr %8, i64 8
  %10 = load ptr, ptr %9, align 8
  %11 = icmp eq ptr %10, %3
  br i1 %11, label %_ZN14RefCountHandleI15RefCountPointerI7JfrBlob23MultiThreadedRefCounterEED2Ev.exit, label %.lr.ph

.lr.ph._crit_edge:                                ; preds = %.lr.ph, %.lr.ph.preheader
  %.tr10.lcssa = phi ptr [ %0, %.lr.ph.preheader ], [ %8, %.lr.ph ]
  %12 = getelementptr inbounds i8, ptr %.tr10.lcssa, i64 8
  %.not.i = icmp eq ptr %3, null
  br i1 %.not.i, label %_ZN14RefCountHandleI15RefCountPointerI7JfrBlob23MultiThreadedRefCounterEEC2ERKS4_.exit.thread, label %_ZN14RefCountHandleI15RefCountPointerI7JfrBlob23MultiThreadedRefCounterEEC2ERKS4_.exit

_ZN14RefCountHandleI15RefCountPointerI7JfrBlob23MultiThreadedRefCounterEEC2ERKS4_.exit.thread: ; preds = %.lr.ph._crit_edge
  store ptr %3, ptr %12, align 8
  br label %_ZN14RefCountHandleI15RefCountPointerI7JfrBlob23MultiThreadedRefCounterEED2Ev.exit

_ZN14RefCountHandleI15RefCountPointerI7JfrBlob23MultiThreadedRefCounterEEC2ERKS4_.exit: ; preds = %.lr.ph._crit_edge
  %13 = getelementptr inbounds i8, ptr %3, i64 8
  %14 = tail call noundef i64 asm sideeffect "lock xaddq $0,($2)", "=r,0,r,~{cc},~{memory},~{dirflag},~{fpsr},~{flags}"(i64 1, ptr nonnull %13) #6, !srcloc !6
  %.pre = load ptr, ptr %12, align 8
  store ptr %3, ptr %12, align 8
  %.not.i4 = icmp eq ptr %.pre, null
  br i1 %.not.i4, label %_ZN14RefCountHandleI15RefCountPointerI7JfrBlob23MultiThreadedRefCounterEED2Ev.exit, label %15

15:                                               ; preds = %_ZN14RefCountHandleI15RefCountPointerI7JfrBlob23MultiThreadedRefCounterEEC2ERKS4_.exit
  %16 = getelementptr inbounds i8, ptr %.pre, i64 8
  %17 = tail call noundef i64 asm sideeffect "lock xaddq $0,($2)", "=r,0,r,~{cc},~{memory},~{dirflag},~{fpsr},~{flags}"(i64 -1, ptr nonnull %16) #6, !srcloc !6
  %18 = icmp eq i64 %17, 1
  br i1 %18, label %19, label %_ZN14RefCountHandleI15RefCountPointerI7JfrBlob23MultiThreadedRefCounterEED2Ev.exit

19:                                               ; preds = %15
  tail call void asm sideeffect "", "~{memory},~{dirflag},~{fpsr},~{flags}"() #6, !srcloc !7
  %20 = load ptr, ptr %.pre, align 8
  %21 = icmp eq ptr %20, null
  br i1 %21, label %_ZN15RefCountPointerI7JfrBlob23MultiThreadedRefCounterED2Ev.exit.i.i, label %22

22:                                               ; preds = %19
  tail call void @_ZN7JfrBlobD2Ev(ptr noundef nonnull align 8 dereferenceable(25) %20) #6
  tail call void @_ZN11JfrCHeapObjdlEPvm(ptr noundef nonnull %20, i64 noundef 32) #6
  br label %_ZN15RefCountPointerI7JfrBlob23MultiThreadedRefCounterED2Ev.exit.i.i

_ZN15RefCountPointerI7JfrBlob23MultiThreadedRefCounterED2Ev.exit.i.i: ; preds = %22, %19
  tail call void @_ZN11JfrCHeapObjdlEPvm(ptr noundef nonnull %.pre, i64 noundef 16) #6
  br label %_ZN14RefCountHandleI15RefCountPointerI7JfrBlob23MultiThreadedRefCounterEED2Ev.exit

_ZN14RefCountHandleI15RefCountPointerI7JfrBlob23MultiThreadedRefCounterEED2Ev.exit: ; preds = %tailrecurse, %_ZN14RefCountHandleI15RefCountPointerI7JfrBlob23MultiThreadedRefCounterEEC2ERKS4_.exit.thread, %2, %_ZN14RefCountHandleI15RefCountPointerI7JfrBlob23MultiThreadedRefCounterEEC2ERKS4_.exit, %_ZN15RefCountPointerI7JfrBlob23MultiThreadedRefCounterED2Ev.exit.i.i, %15
  ret void
}